; ModuleID = '38/1442.c'
source_filename = "38/1442.c"
target datalayout = "e-m:e-p270:32:32-p271:32:32-p272:64:64-i64:64-f80:128-n8:16:32:64-S128"
target triple = "x86_64-pc-linux-gnu"

@.str = private unnamed_addr constant [3 x i8] c"%d\00", align 1
@.str.1 = private unnamed_addr constant [4 x i8] c"%lf\00", align 1
@.str.2 = private unnamed_addr constant [6 x i8] c"%.5f\0A\00", align 1

; Function Attrs: noinline nounwind uwtable
define dso_local void @main() #0 {
  %1 = alloca i32, align 4
  %2 = alloca i32, align 4
  %3 = alloca i32, align 4
  %4 = alloca i32, align 4
  %5 = alloca i32, align 4
  %6 = alloca double*, align 8
  %7 = alloca double, align 8
  %8 = alloca double, align 8
  store i32 0, i32* %3, align 4
  %9 = call i32 (i8*, ...) @__isoc99_scanf(i8* getelementptr inbounds ([3 x i8], [3 x i8]* @.str, i64 0, i64 0), i32* %4)
  store i32 0, i32* %1, align 4
  br label %10

10:                                               ; preds = %78, %0
  %11 = load i32, i32* %1, align 4
  %12 = load i32, i32* %4, align 4
  %13 = icmp slt i32 %11, %12
  br i1 %13, label %14, label %81

14:                                               ; preds = %10
  %15 = call i32 (i8*, ...) @__isoc99_scanf(i8* getelementptr inbounds ([3 x i8], [3 x i8]* @.str, i64 0, i64 0), i32* %5)
  store double 0.000000e+00, double* %7, align 8
  store double 0.000000e+00, double* %8, align 8
  %16 = load i32, i32* %5, align 4
  %17 = sext i32 %16 to i64
  %18 = call noalias i8* @calloc(i64 %17, i64 8) #3
  %19 = bitcast i8* %18 to double*
  store double* %19, double** %6, align 8
  store i32 0, i32* %2, align 4
  br label %20

20:                                               ; preds = %37, %14
  %21 = load i32, i32* %2, align 4
  %22 = load i32, i32* %5, align 4
  %23 = icmp slt i32 %21, %22
  br i1 %23, label %24, label %40

24:                                               ; preds = %20
  %25 = load double*, double** %6, align 8
  %26 = load i32, i32* %2, align 4
  %27 = sext i32 %26 to i64
  %28 = getelementptr inbounds double, double* %25, i64 %27
  %29 = call i32 (i8*, ...) @__isoc99_scanf(i8* getelementptr inbounds ([4 x i8], [4 x i8]* @.str.1, i64 0, i64 0), double* %28)
  %30 = load double, double* %7, align 8
  %31 = load double*, double** %6, align 8
  %32 = load i32, i32* %2, align 4
  %33 = sext i32 %32 to i64
  %34 = getelementptr inbounds double, double* %31, i64 %33
  %35 = load double, double* %34, align 8
  %36 = fadd double %30, %35
  store double %36, double* %7, align 8
  br label %37

37:                                               ; preds = %24
  %38 = load i32, i32* %2, align 4
  %39 = add nsw i32 %38, 1
  store i32 %39, i32* %2, align 4
  br label %20

40:                                               ; preds = %20
  %41 = load double, double* %7, align 8
  %42 = load i32, i32* %5, align 4
  %43 = sitofp i32 %42 to double
  %44 = fdiv double %41, %43
  store double %44, double* %7, align 8
  store i32 0, i32* %2, align 4
  br label %45

45:                                               ; preds = %67, %40
  %46 = load i32, i32* %2, align 4
  %47 = load i32, i32* %5, align 4
  %48 = icmp slt i32 %46, %47
  br i1 %48, label %49, label %70

49:                                               ; preds = %45
  %50 = load double, double* %8, align 8
  %51 = load double*, double** %6, align 8
  %52 = load i32, i32* %2, align 4
  %53 = sext i32 %52 to i64
  %54 = getelementptr inbounds double, double* %51, i64 %53
  %55 = load double, double* %54, align 8
  %56 = load double, double* %7, align 8
  %57 = fsub double %55, %56
  %58 = load double*, double** %6, align 8
  %59 = load i32, i32* %2, align 4
  %60 = sext i32 %59 to i64
  %61 = getelementptr inbounds double, double* %58, i64 %60
  %62 = load double, double* %61, align 8
  %63 = load double, double* %7, align 8
  %64 = fsub double %62, %63
  %65 = fmul double %57, %64
  %66 = fadd double %50, %65
  store double %66, double* %8, align 8
  br label %67

67:                                               ; preds = %49
  %68 = load i32, i32* %2, align 4
  %69 = add nsw i32 %68, 1
  store i32 %69, i32* %2, align 4
  br label %45

70:                                               ; preds = %45
  %71 = load double, double* %8, align 8
  %72 = load i32, i32* %5, align 4
  %73 = sitofp i32 %72 to double
  %74 = fdiv double %71, %73
  %75 = call double @sqrt(double %74) #3
  store double %75, double* %8, align 8
  %76 = load double, double* %8, align 8
  %77 = call i32 (i8*, ...) @printf(i8* getelementptr inbounds ([6 x i8], [6 x i8]* @.str.2, i64 0, i64 0), double %76)
  br label %78

78:                                               ; preds = %70
  %79 = load i32, i32* %1, align 4
  %80 = add nsw i32 %79, 1
  store i32 %80, i32* %1, align 4
  br label %10

81:                                               ; preds = %10
  ret void
}

declare dso_local i32 @__isoc99_scanf(i8*, ...) #1

; Function Attrs: nounwind
declare dso_local noalias i8* @calloc(i64, i64) #2

; Function Attrs: nounwind
declare dso_local double @sqrt(double) #2

declare dso_local i32 @printf(i8*, ...) #1


!llvm.module.flags = !{!0}
!llvm.ident = !{!1}

!0 = !{i32 1, !"wchar_size", i32 4}
!1 = !{!"clang version 10.0.0-4ubuntu1 "}
